target datalayout = "e-m:e-p270:32:32-p271:32:32-p272:64:64-i64:64-i128:128-f80:128-n8:16:32:64-S128"
target triple = "x86_64-pc-linux-gnu"

@_ZN5arrow8bit_utilL17kPrecedingBitmaskE = internal constant [8 x i8] c"\00\01\03\07\0F\1F?\7F", align 1
@_ZN5arrow8bit_utilL16kTrailingBitmaskE = internal constant [8 x i8] c"\FF\FE\FC\F8\F0\E0\C0\80", align 1

; Function Attrs: mustprogress nounwind uwtable
define void @_ZN5arrow8bit_util9SetBitsToEPhllb(ptr noundef %0, i64 noundef %1, i64 noundef %2, i1 noundef zeroext %3) #0 {
  %5 = alloca ptr, align 8
  %6 = alloca i64, align 8
  %7 = alloca i64, align 8
  %8 = alloca i8, align 1
  %9 = alloca i64, align 8
  %10 = alloca i64, align 8
  %11 = alloca i8, align 1
  %12 = alloca i64, align 8
  %13 = alloca i64, align 8
  %14 = alloca i8, align 1
  %15 = alloca i8, align 1
  %16 = alloca i8, align 1
  %17 = alloca i32, align 4
  store ptr %0, ptr %5, align 8, !tbaa !3
  store i64 %1, ptr %6, align 8, !tbaa !8
  store i64 %2, ptr %7, align 8, !tbaa !8
  %18 = zext i1 %3 to i8
  store i8 %18, ptr %8, align 1, !tbaa !10
  %19 = load i64, ptr %7, align 8, !tbaa !8
  %20 = icmp eq i64 %19, 0
  br i1 %20, label %21, label %22

21:                                               ; preds = %4
  br label %164

22:                                               ; preds = %4
  call void @llvm.lifetime.start.p0(i64 8, ptr %9) #5
  %23 = load i64, ptr %6, align 8, !tbaa !8
  store i64 %23, ptr %9, align 8, !tbaa !8
  call void @llvm.lifetime.start.p0(i64 8, ptr %10) #5
  %24 = load i64, ptr %6, align 8, !tbaa !8
  %25 = load i64, ptr %7, align 8, !tbaa !8
  %26 = add nsw i64 %24, %25
  store i64 %26, ptr %10, align 8, !tbaa !8
  call void @llvm.lifetime.start.p0(i64 1, ptr %11) #5
  %27 = load i8, ptr %8, align 1, !tbaa !10, !range !12, !noundef !13
  %28 = trunc i8 %27 to i1
  %29 = zext i1 %28 to i8
  %30 = zext i8 %29 to i32
  %31 = sub nsw i32 0, %30
  %32 = trunc i32 %31 to i8
  store i8 %32, ptr %11, align 1, !tbaa !14
  call void @llvm.lifetime.start.p0(i64 8, ptr %12) #5
  %33 = load i64, ptr %9, align 8, !tbaa !8
  %34 = sdiv i64 %33, 8
  store i64 %34, ptr %12, align 8, !tbaa !8
  call void @llvm.lifetime.start.p0(i64 8, ptr %13) #5
  %35 = load i64, ptr %10, align 8, !tbaa !8
  %36 = sdiv i64 %35, 8
  %37 = add nsw i64 %36, 1
  store i64 %37, ptr %13, align 8, !tbaa !8
  call void @llvm.lifetime.start.p0(i64 1, ptr %14) #5
  %38 = load i64, ptr %9, align 8, !tbaa !8
  %39 = srem i64 %38, 8
  %40 = getelementptr inbounds [8 x i8], ptr @_ZN5arrow8bit_utilL17kPrecedingBitmaskE, i64 0, i64 %39
  %41 = load i8, ptr %40, align 1, !tbaa !14
  store i8 %41, ptr %14, align 1, !tbaa !14
  call void @llvm.lifetime.start.p0(i64 1, ptr %15) #5
  %42 = load i64, ptr %10, align 8, !tbaa !8
  %43 = srem i64 %42, 8
  %44 = getelementptr inbounds [8 x i8], ptr @_ZN5arrow8bit_utilL16kTrailingBitmaskE, i64 0, i64 %43
  %45 = load i8, ptr %44, align 1, !tbaa !14
  store i8 %45, ptr %15, align 1, !tbaa !14
  %46 = load i64, ptr %13, align 8, !tbaa !8
  %47 = load i64, ptr %12, align 8, !tbaa !8
  %48 = add nsw i64 %47, 1
  %49 = icmp eq i64 %46, %48
  br i1 %49, label %50, label %89

50:                                               ; preds = %22
  call void @llvm.lifetime.start.p0(i64 1, ptr %16) #5
  %51 = load i64, ptr %10, align 8, !tbaa !8
  %52 = srem i64 %51, 8
  %53 = icmp eq i64 %52, 0
  br i1 %53, label %54, label %56

54:                                               ; preds = %50
  %55 = load i8, ptr %14, align 1, !tbaa !14
  br label %63

56:                                               ; preds = %50
  %57 = load i8, ptr %14, align 1, !tbaa !14
  %58 = zext i8 %57 to i32
  %59 = load i8, ptr %15, align 1, !tbaa !14
  %60 = zext i8 %59 to i32
  %61 = or i32 %58, %60
  %62 = trunc i32 %61 to i8
  br label %63

63:                                               ; preds = %56, %54
  %64 = phi i8 [ %55, %54 ], [ %62, %56 ]
  store i8 %64, ptr %16, align 1, !tbaa !14
  %65 = load i8, ptr %16, align 1, !tbaa !14
  %66 = zext i8 %65 to i32
  %67 = load ptr, ptr %5, align 8, !tbaa !3
  %68 = load i64, ptr %12, align 8, !tbaa !8
  %69 = getelementptr inbounds i8, ptr %67, i64 %68
  %70 = load i8, ptr %69, align 1, !tbaa !14
  %71 = zext i8 %70 to i32
  %72 = and i32 %71, %66
  %73 = trunc i32 %72 to i8
  store i8 %73, ptr %69, align 1, !tbaa !14
  %74 = load i8, ptr %11, align 1, !tbaa !14
  %75 = zext i8 %74 to i32
  %76 = load i8, ptr %16, align 1, !tbaa !14
  %77 = zext i8 %76 to i32
  %78 = xor i32 %77, -1
  %79 = and i32 %75, %78
  %80 = trunc i32 %79 to i8
  %81 = zext i8 %80 to i32
  %82 = load ptr, ptr %5, align 8, !tbaa !3
  %83 = load i64, ptr %12, align 8, !tbaa !8
  %84 = getelementptr inbounds i8, ptr %82, i64 %83
  %85 = load i8, ptr %84, align 1, !tbaa !14
  %86 = zext i8 %85 to i32
  %87 = or i32 %86, %81
  %88 = trunc i32 %87 to i8
  store i8 %88, ptr %84, align 1, !tbaa !14
  store i32 1, ptr %17, align 4
  call void @llvm.lifetime.end.p0(i64 1, ptr %16) #5
  br label %162

89:                                               ; preds = %22
  %90 = load i8, ptr %14, align 1, !tbaa !14
  %91 = zext i8 %90 to i32
  %92 = load ptr, ptr %5, align 8, !tbaa !3
  %93 = load i64, ptr %12, align 8, !tbaa !8
  %94 = getelementptr inbounds i8, ptr %92, i64 %93
  %95 = load i8, ptr %94, align 1, !tbaa !14
  %96 = zext i8 %95 to i32
  %97 = and i32 %96, %91
  %98 = trunc i32 %97 to i8
  store i8 %98, ptr %94, align 1, !tbaa !14
  %99 = load i8, ptr %11, align 1, !tbaa !14
  %100 = zext i8 %99 to i32
  %101 = load i8, ptr %14, align 1, !tbaa !14
  %102 = zext i8 %101 to i32
  %103 = xor i32 %102, -1
  %104 = and i32 %100, %103
  %105 = trunc i32 %104 to i8
  %106 = zext i8 %105 to i32
  %107 = load ptr, ptr %5, align 8, !tbaa !3
  %108 = load i64, ptr %12, align 8, !tbaa !8
  %109 = getelementptr inbounds i8, ptr %107, i64 %108
  %110 = load i8, ptr %109, align 1, !tbaa !14
  %111 = zext i8 %110 to i32
  %112 = or i32 %111, %106
  %113 = trunc i32 %112 to i8
  store i8 %113, ptr %109, align 1, !tbaa !14
  %114 = load i64, ptr %13, align 8, !tbaa !8
  %115 = load i64, ptr %12, align 8, !tbaa !8
  %116 = sub nsw i64 %114, %115
  %117 = icmp sgt i64 %116, 2
  br i1 %117, label %118, label %130

118:                                              ; preds = %89
  %119 = load ptr, ptr %5, align 8, !tbaa !3
  %120 = load i64, ptr %12, align 8, !tbaa !8
  %121 = getelementptr inbounds i8, ptr %119, i64 %120
  %122 = getelementptr inbounds i8, ptr %121, i64 1
  %123 = load i8, ptr %11, align 1, !tbaa !14
  %124 = zext i8 %123 to i32
  %125 = trunc i32 %124 to i8
  %126 = load i64, ptr %13, align 8, !tbaa !8
  %127 = load i64, ptr %12, align 8, !tbaa !8
  %128 = sub nsw i64 %126, %127
  %129 = sub nsw i64 %128, 2
  call void @llvm.memset.p0.i64(ptr align 1 %122, i8 %125, i64 %129, i1 false)
  br label %130

130:                                              ; preds = %118, %89
  %131 = load i64, ptr %10, align 8, !tbaa !8
  %132 = srem i64 %131, 8
  %133 = icmp eq i64 %132, 0
  br i1 %133, label %134, label %135

134:                                              ; preds = %130
  store i32 1, ptr %17, align 4
  br label %162

135:                                              ; preds = %130
  %136 = load i8, ptr %15, align 1, !tbaa !14
  %137 = zext i8 %136 to i32
  %138 = load ptr, ptr %5, align 8, !tbaa !3
  %139 = load i64, ptr %13, align 8, !tbaa !8
  %140 = sub nsw i64 %139, 1
  %141 = getelementptr inbounds i8, ptr %138, i64 %140
  %142 = load i8, ptr %141, align 1, !tbaa !14
  %143 = zext i8 %142 to i32
  %144 = and i32 %143, %137
  %145 = trunc i32 %144 to i8
  store i8 %145, ptr %141, align 1, !tbaa !14
  %146 = load i8, ptr %11, align 1, !tbaa !14
  %147 = zext i8 %146 to i32
  %148 = load i8, ptr %15, align 1, !tbaa !14
  %149 = zext i8 %148 to i32
  %150 = xor i32 %149, -1
  %151 = and i32 %147, %150
  %152 = trunc i32 %151 to i8
  %153 = zext i8 %152 to i32
  %154 = load ptr, ptr %5, align 8, !tbaa !3
  %155 = load i64, ptr %13, align 8, !tbaa !8
  %156 = sub nsw i64 %155, 1
  %157 = getelementptr inbounds i8, ptr %154, i64 %156
  %158 = load i8, ptr %157, align 1, !tbaa !14
  %159 = zext i8 %158 to i32
  %160 = or i32 %159, %153
  %161 = trunc i32 %160 to i8
  store i8 %161, ptr %157, align 1, !tbaa !14
  store i32 0, ptr %17, align 4
  br label %162

162:                                              ; preds = %135, %134, %63
  call void @llvm.lifetime.end.p0(i64 1, ptr %15) #5
  call void @llvm.lifetime.end.p0(i64 1, ptr %14) #5
  call void @llvm.lifetime.end.p0(i64 8, ptr %13) #5
  call void @llvm.lifetime.end.p0(i64 8, ptr %12) #5
  call void @llvm.lifetime.end.p0(i64 1, ptr %11) #5
  call void @llvm.lifetime.end.p0(i64 8, ptr %10) #5
  call void @llvm.lifetime.end.p0(i64 8, ptr %9) #5
  %163 = load i32, ptr %17, align 4
  switch i32 %163, label %165 [
    i32 0, label %164
    i32 1, label %164
  ]

164:                                              ; preds = %21, %162, %162
  ret void

165:                                              ; preds = %162
  unreachable
}