; Function Attrs: mustprogress nofree norecurse nosync nounwind willreturn memory(argmem: readwrite) uwtable
define void @_ZN5arrow8bit_util9SetBitsToEPhllb(ptr noundef captures(none) %0, i64 noundef %1, i64 noundef %2, i1 noundef zeroext %3) local_unnamed_addr #0 {
  %5 = icmp eq i64 %2, 0
  br i1 %5, label %41, label %6

6:                                                ; preds = %4
  %7 = add nsw i64 %2, %1
  %8 = sext i1 %3 to i8
  %9 = sdiv i64 %1, 8
  %10 = sdiv i64 %7, 8
  %11 = srem i64 %1, 8
  %12 = getelementptr inbounds [8 x i8], ptr @_ZN5arrow8bit_utilL17kPrecedingBitmaskE, i64 0, i64 %11
  %13 = load i8, ptr %12, align 1, !tbaa !3
  %14 = srem i64 %7, 8
  %15 = getelementptr inbounds [8 x i8], ptr @_ZN5arrow8bit_utilL16kTrailingBitmaskE, i64 0, i64 %14
  %16 = load i8, ptr %15, align 1, !tbaa !3
  %17 = icmp eq i64 %10, %9
  br i1 %17, label %18, label %22

18:                                               ; preds = %6
  %19 = icmp eq i64 %14, 0
  %20 = select i1 %19, i8 0, i8 %16
  %21 = or i8 %20, %13
  br label %.sink.split

22:                                               ; preds = %6
  %23 = getelementptr inbounds i8, ptr %0, i64 %9
  %24 = load i8, ptr %23, align 1, !tbaa !3
  %25 = and i8 %24, %13
  %26 = xor i8 %13, -1
  %27 = select i1 %3, i8 %26, i8 0
  %28 = or i8 %25, %27
  store i8 %28, ptr %23, align 1, !tbaa !3
  %reass.sub = sub nsw i64 %10, %9
  %29 = icmp sgt i64 %reass.sub, 1
  br i1 %29, label %30, label %33

30:                                               ; preds = %22
  %31 = getelementptr inbounds nuw i8, ptr %23, i64 1
  %32 = add nsw i64 %reass.sub, -1
  tail call void @llvm.memset.p0.i64(ptr nonnull align 1 %31, i8 %8, i64 %32, i1 false)
  br label %33

33:                                               ; preds = %30, %22
  %34 = icmp eq i64 %14, 0
  br i1 %34, label %41, label %.sink.split

.sink.split:                                      ; preds = %33, %18
  %.sink = phi i64 [ %9, %18 ], [ %10, %33 ]
  %.sink49 = phi i8 [ %21, %18 ], [ %16, %33 ]
  %35 = getelementptr inbounds i8, ptr %0, i64 %.sink
  %36 = load i8, ptr %35, align 1, !tbaa !3
  %37 = and i8 %36, %.sink49
  %38 = xor i8 %.sink49, -1
  %39 = select i1 %3, i8 %38, i8 0
  %40 = or i8 %37, %39
  store i8 %40, ptr %35, align 1, !tbaa !3
  br label %41

41:                                               ; preds = %.sink.split, %33, %4
  ret void
}